; ModuleID = '19/242.c'
source_filename = "19/242.c"
target datalayout = "e-m:e-p270:32:32-p271:32:32-p272:64:64-i64:64-f80:128-n8:16:32:64-S128"
target triple = "x86_64-pc-linux-gnu"

@.str = private unnamed_addr constant [3 x i8] c"%s\00", align 1
@.str.1 = private unnamed_addr constant [4 x i8] c"%s \00", align 1

; Function Attrs: noinline nounwind uwtable
define dso_local i32 @main(i32 %0, i8** %1) #0 {
  %3 = alloca i32, align 4
  %4 = alloca i32, align 4
  %5 = alloca i8**, align 8
  %6 = alloca [100 x i8], align 16
  %7 = alloca [10 x i8], align 1
  %8 = alloca [10 x i8], align 1
  %9 = alloca [10 x i8], align 1
  %10 = alloca i32, align 4
  %11 = alloca i32, align 4
  %12 = alloca i32, align 4
  store i32 0, i32* %3, align 4
  store i32 %0, i32* %4, align 4
  store i8** %1, i8*** %5, align 8
  %13 = getelementptr inbounds [100 x i8], [100 x i8]* %6, i64 0, i64 0
  %14 = call i32 (i8*, ...) bitcast (i32 (...)* @gets to i32 (i8*, ...)*)(i8* %13)
  %15 = getelementptr inbounds [10 x i8], [10 x i8]* %7, i64 0, i64 0
  %16 = call i32 (i8*, ...) bitcast (i32 (...)* @gets to i32 (i8*, ...)*)(i8* %15)
  %17 = getelementptr inbounds [10 x i8], [10 x i8]* %8, i64 0, i64 0
  %18 = call i32 (i8*, ...) bitcast (i32 (...)* @gets to i32 (i8*, ...)*)(i8* %17)
  store i32 0, i32* %11, align 4
  %19 = getelementptr inbounds [100 x i8], [100 x i8]* %6, i64 0, i64 0
  %20 = call i64 @strlen(i8* %19) #3
  %21 = trunc i64 %20 to i32
  store i32 %21, i32* %10, align 4
  store i32 0, i32* %12, align 4
  br label %22

22:                                               ; preds = %93, %2
  %23 = load i32, i32* %12, align 4
  %24 = load i32, i32* %10, align 4
  %25 = icmp slt i32 %23, %24
  br i1 %25, label %26, label %96

26:                                               ; preds = %22
  %27 = load i32, i32* %12, align 4
  %28 = sext i32 %27 to i64
  %29 = getelementptr inbounds [100 x i8], [100 x i8]* %6, i64 0, i64 %28
  %30 = load i8, i8* %29, align 1
  %31 = sext i8 %30 to i32
  %32 = icmp ne i32 %31, 32
  br i1 %32, label %33, label %77

33:                                               ; preds = %26
  %34 = load i32, i32* %12, align 4
  %35 = load i32, i32* %10, align 4
  %36 = sub nsw i32 %35, 1
  %37 = icmp ne i32 %34, %36
  br i1 %37, label %38, label %48

38:                                               ; preds = %33
  %39 = load i32, i32* %12, align 4
  %40 = sext i32 %39 to i64
  %41 = getelementptr inbounds [100 x i8], [100 x i8]* %6, i64 0, i64 %40
  %42 = load i8, i8* %41, align 1
  %43 = load i32, i32* %11, align 4
  %44 = sext i32 %43 to i64
  %45 = getelementptr inbounds [10 x i8], [10 x i8]* %9, i64 0, i64 %44
  store i8 %42, i8* %45, align 1
  %46 = load i32, i32* %11, align 4
  %47 = add nsw i32 %46, 1
  store i32 %47, i32* %11, align 4
  br label %48

48:                                               ; preds = %38, %33
  %49 = load i32, i32* %12, align 4
  %50 = load i32, i32* %10, align 4
  %51 = sub nsw i32 %50, 1
  %52 = icmp eq i32 %49, %51
  br i1 %52, label %53, label %76

53:                                               ; preds = %48
  %54 = load i32, i32* %12, align 4
  %55 = sext i32 %54 to i64
  %56 = getelementptr inbounds [100 x i8], [100 x i8]* %6, i64 0, i64 %55
  %57 = load i8, i8* %56, align 1
  %58 = load i32, i32* %11, align 4
  %59 = sext i32 %58 to i64
  %60 = getelementptr inbounds [10 x i8], [10 x i8]* %9, i64 0, i64 %59
  store i8 %57, i8* %60, align 1
  %61 = load i32, i32* %11, align 4
  %62 = add nsw i32 %61, 1
  %63 = sext i32 %62 to i64
  %64 = getelementptr inbounds [10 x i8], [10 x i8]* %9, i64 0, i64 %63
  store i8 0, i8* %64, align 1
  %65 = getelementptr inbounds [10 x i8], [10 x i8]* %9, i64 0, i64 0
  %66 = getelementptr inbounds [10 x i8], [10 x i8]* %7, i64 0, i64 0
  %67 = call i32 @strcmp(i8* %65, i8* %66) #3
  %68 = icmp eq i32 %67, 0
  br i1 %68, label %69, label %72

69:                                               ; preds = %53
  %70 = getelementptr inbounds [10 x i8], [10 x i8]* %8, i64 0, i64 0
  %71 = call i32 (i8*, ...) @printf(i8* getelementptr inbounds ([3 x i8], [3 x i8]* @.str, i64 0, i64 0), i8* %70)
  br label %75

72:                                               ; preds = %53
  %73 = getelementptr inbounds [10 x i8], [10 x i8]* %9, i64 0, i64 0
  %74 = call i32 (i8*, ...) @printf(i8* getelementptr inbounds ([3 x i8], [3 x i8]* @.str, i64 0, i64 0), i8* %73)
  br label %75

75:                                               ; preds = %72, %69
  br label %76

76:                                               ; preds = %75, %48
  br label %92

77:                                               ; preds = %26
  %78 = load i32, i32* %11, align 4
  %79 = sext i32 %78 to i64
  %80 = getelementptr inbounds [10 x i8], [10 x i8]* %9, i64 0, i64 %79
  store i8 0, i8* %80, align 1
  store i32 0, i32* %11, align 4
  %81 = getelementptr inbounds [10 x i8], [10 x i8]* %9, i64 0, i64 0
  %82 = getelementptr inbounds [10 x i8], [10 x i8]* %7, i64 0, i64 0
  %83 = call i32 @strcmp(i8* %81, i8* %82) #3
  %84 = icmp eq i32 %83, 0
  br i1 %84, label %85, label %88

85:                                               ; preds = %77
  %86 = getelementptr inbounds [10 x i8], [10 x i8]* %8, i64 0, i64 0
  %87 = call i32 (i8*, ...) @printf(i8* getelementptr inbounds ([4 x i8], [4 x i8]* @.str.1, i64 0, i64 0), i8* %86)
  br label %91

88:                                               ; preds = %77
  %89 = getelementptr inbounds [10 x i8], [10 x i8]* %9, i64 0, i64 0
  %90 = call i32 (i8*, ...) @printf(i8* getelementptr inbounds ([4 x i8], [4 x i8]* @.str.1, i64 0, i64 0), i8* %89)
  br label %91

91:                                               ; preds = %88, %85
  br label %92

92:                                               ; preds = %91, %76
  br label %93

93:                                               ; preds = %92
  %94 = load i32, i32* %12, align 4
  %95 = add nsw i32 %94, 1
  store i32 %95, i32* %12, align 4
  br label %22

96:                                               ; preds = %22
  ret i32 0
}

declare dso_local i32 @gets(...) #1

; Function Attrs: nounwind readonly
declare dso_local i64 @strlen(i8*) #2

; Function Attrs: nounwind readonly
declare dso_local i32 @strcmp(i8*, i8*) #2

declare dso_local i32 @printf(i8*, ...) #1


!llvm.module.flags = !{!0}
!llvm.ident = !{!1}

!0 = !{i32 1, !"wchar_size", i32 4}
!1 = !{!"clang version 10.0.0-4ubuntu1 "}
